target datalayout = "e-m:e-p270:32:32-p271:32:32-p272:64:64-i64:64-i128:128-f80:128-n8:16:32:64-S128"
target triple = "x86_64-pc-linux-gnu"

%"struct.std::atomic" = type { %"struct.std::__atomic_base" }
%"struct.std::__atomic_base" = type { i32 }
%"class.pxrInternal_v0_24__pxrReserved__::UsdAttribute" = type { %"class.pxrInternal_v0_24__pxrReserved__::UsdProperty" }
%"class.pxrInternal_v0_24__pxrReserved__::UsdProperty" = type { %"class.pxrInternal_v0_24__pxrReserved__::UsdObject" }
%"class.pxrInternal_v0_24__pxrReserved__::UsdObject" = type { i32, %"class.pxrInternal_v0_24__pxrReserved__::Usd_PrimDataHandle", %"class.pxrInternal_v0_24__pxrReserved__::SdfPath", %"class.pxrInternal_v0_24__pxrReserved__::TfToken" }
%"class.pxrInternal_v0_24__pxrReserved__::Usd_PrimDataHandle" = type { %"class.pxrInternal_v0_24__pxrReserved__::TfDelegatedCountPtr" }
%"class.pxrInternal_v0_24__pxrReserved__::TfDelegatedCountPtr" = type { ptr }
%"class.pxrInternal_v0_24__pxrReserved__::SdfPath" = type { %"struct.pxrInternal_v0_24__pxrReserved__::Sdf_PathNodeHandleImpl", %"struct.pxrInternal_v0_24__pxrReserved__::Sdf_PathNodeHandleImpl.0" }
%"struct.pxrInternal_v0_24__pxrReserved__::Sdf_PathNodeHandleImpl" = type { %"struct.pxrInternal_v0_24__pxrReserved__::Sdf_Pool<pxrInternal_v0_24__pxrReserved__::Sdf_PathPrimTag, 24, 8>::Handle" }
%"struct.pxrInternal_v0_24__pxrReserved__::Sdf_Pool<pxrInternal_v0_24__pxrReserved__::Sdf_PathPrimTag, 24, 8>::Handle" = type { i32 }
%"struct.pxrInternal_v0_24__pxrReserved__::Sdf_PathNodeHandleImpl.0" = type { %"struct.pxrInternal_v0_24__pxrReserved__::Sdf_Pool<pxrInternal_v0_24__pxrReserved__::Sdf_PathPropTag, 24, 8>::Handle" }
%"struct.pxrInternal_v0_24__pxrReserved__::Sdf_Pool<pxrInternal_v0_24__pxrReserved__::Sdf_PathPropTag, 24, 8>::Handle" = type { i32 }
%"class.pxrInternal_v0_24__pxrReserved__::TfToken" = type { %"class.pxrInternal_v0_24__pxrReserved__::TfPointerAndBits" }
%"class.pxrInternal_v0_24__pxrReserved__::TfPointerAndBits" = type { ptr }
%"class.pxrInternal_v0_24__pxrReserved__::UsdSkel_SkelAnimationQueryImpl" = type { %"class.pxrInternal_v0_24__pxrReserved__::UsdSkel_AnimQueryImpl", %"class.pxrInternal_v0_24__pxrReserved__::UsdSkelAnimation", %"class.pxrInternal_v0_24__pxrReserved__::UsdAttributeQuery", %"class.pxrInternal_v0_24__pxrReserved__::UsdAttributeQuery", %"class.pxrInternal_v0_24__pxrReserved__::UsdAttributeQuery", %"class.pxrInternal_v0_24__pxrReserved__::UsdAttributeQuery" }
%"class.pxrInternal_v0_24__pxrReserved__::UsdSkel_AnimQueryImpl" = type { %"class.pxrInternal_v0_24__pxrReserved__::TfRefBase.base", %"class.pxrInternal_v0_24__pxrReserved__::VtArray", %"class.pxrInternal_v0_24__pxrReserved__::VtArray" }
%"class.pxrInternal_v0_24__pxrReserved__::TfRefBase.base" = type <{ ptr, %"struct.std::atomic" }>
%"class.pxrInternal_v0_24__pxrReserved__::VtArray" = type { %"class.pxrInternal_v0_24__pxrReserved__::Vt_ArrayBase", ptr }
%"class.pxrInternal_v0_24__pxrReserved__::Vt_ArrayBase" = type { %"struct.pxrInternal_v0_24__pxrReserved__::Vt_ShapeData", ptr }
%"struct.pxrInternal_v0_24__pxrReserved__::Vt_ShapeData" = type { i64, [3 x i32] }
%"class.pxrInternal_v0_24__pxrReserved__::UsdSkelAnimation" = type { %"class.pxrInternal_v0_24__pxrReserved__::UsdTyped" }
%"class.pxrInternal_v0_24__pxrReserved__::UsdTyped" = type { %"class.pxrInternal_v0_24__pxrReserved__::UsdSchemaBase" }
%"class.pxrInternal_v0_24__pxrReserved__::UsdSchemaBase" = type { ptr, %"class.pxrInternal_v0_24__pxrReserved__::Usd_PrimDataHandle", %"class.pxrInternal_v0_24__pxrReserved__::SdfPath" }
%"class.pxrInternal_v0_24__pxrReserved__::UsdAttributeQuery" = type { %"class.pxrInternal_v0_24__pxrReserved__::UsdAttribute", %"class.pxrInternal_v0_24__pxrReserved__::UsdResolveInfo", %"class.std::unique_ptr" }
%"class.pxrInternal_v0_24__pxrReserved__::UsdResolveInfo" = type <{ %"class.pxrInternal_v0_24__pxrReserved__::TfWeakPtr", %"class.pxrInternal_v0_24__pxrReserved__::TfWeakPtr.1", %"class.pxrInternal_v0_24__pxrReserved__::PcpNodeRef", %"class.pxrInternal_v0_24__pxrReserved__::SdfLayerOffset", %"class.pxrInternal_v0_24__pxrReserved__::SdfPath", i32, i8, [3 x i8] }>
%"class.pxrInternal_v0_24__pxrReserved__::TfWeakPtr" = type { ptr, %"class.pxrInternal_v0_24__pxrReserved__::TfRefPtr" }
%"class.pxrInternal_v0_24__pxrReserved__::TfRefPtr" = type { ptr }
%"class.pxrInternal_v0_24__pxrReserved__::TfWeakPtr.1" = type { ptr, %"class.pxrInternal_v0_24__pxrReserved__::TfRefPtr" }
%"class.pxrInternal_v0_24__pxrReserved__::PcpNodeRef" = type { ptr, i64 }
%"class.pxrInternal_v0_24__pxrReserved__::SdfLayerOffset" = type { double, double }
%"class.std::unique_ptr" = type { %"struct.std::__uniq_ptr_data" }
%"struct.std::__uniq_ptr_data" = type { %"class.std::__uniq_ptr_impl" }
%"class.std::__uniq_ptr_impl" = type { %"class.std::tuple" }
%"class.std::tuple" = type { %"struct.std::_Tuple_impl" }
%"struct.std::_Tuple_impl" = type { %"struct.std::_Head_base.4" }
%"struct.std::_Head_base.4" = type { ptr }

; Function Attrs: mustprogress uwtable
define noundef zeroext i1 @_ZNK32pxrInternal_v0_24__pxrReserved__30UsdSkel_SkelAnimationQueryImpl33JointTransformsMightBeTimeVaryingEv(ptr noundef nonnull align 8 dereferenceable(600) %0) unnamed_addr #0 align 2 {
  %2 = alloca ptr, align 8
  store ptr %0, ptr %2, align 8
  %3 = load ptr, ptr %2, align 8
  %4 = getelementptr inbounds nuw %"class.pxrInternal_v0_24__pxrReserved__::UsdSkel_SkelAnimationQueryImpl", ptr %3, i32 0, i32 2
  %5 = call noundef zeroext i1 @_ZNK32pxrInternal_v0_24__pxrReserved__17UsdAttributeQuery23ValueMightBeTimeVaryingEv(ptr noundef nonnull align 8 dereferenceable(120) %4)
  br i1 %5, label %12, label %6

6:                                                ; preds = %1
  %7 = getelementptr inbounds nuw %"class.pxrInternal_v0_24__pxrReserved__::UsdSkel_SkelAnimationQueryImpl", ptr %3, i32 0, i32 3
  %8 = call noundef zeroext i1 @_ZNK32pxrInternal_v0_24__pxrReserved__17UsdAttributeQuery23ValueMightBeTimeVaryingEv(ptr noundef nonnull align 8 dereferenceable(120) %7)
  br i1 %8, label %12, label %9

9:                                                ; preds = %6
  %10 = getelementptr inbounds nuw %"class.pxrInternal_v0_24__pxrReserved__::UsdSkel_SkelAnimationQueryImpl", ptr %3, i32 0, i32 4
  %11 = call noundef zeroext i1 @_ZNK32pxrInternal_v0_24__pxrReserved__17UsdAttributeQuery23ValueMightBeTimeVaryingEv(ptr noundef nonnull align 8 dereferenceable(120) %10)
  br label %12

12:                                               ; preds = %9, %6, %1
  %13 = phi i1 [ true, %6 ], [ true, %1 ], [ %11, %9 ]
  ret i1 %13
}